target datalayout = "e-m:e-p270:32:32-p271:32:32-p272:64:64-i64:64-i128:128-f80:128-n8:16:32:64-S128"
target triple = "x86_64-pc-linux-gnu"

%union.pthread_mutex_t = type { %struct.__pthread_mutex_s }
%struct.__pthread_mutex_s = type { i32, i32, i32, i32, i32, i16, i16, %struct.__pthread_internal_list }
%struct.__pthread_internal_list = type { ptr, ptr }
%struct.wolfSSL_RefWithMutex = type { %union.pthread_mutex_t, i32 }
%struct.WOLFSSL_CERT_MANAGER = type { [11 x ptr], ptr, ptr, ptr, ptr, ptr, ptr, ptr, ptr, ptr, ptr, ptr, ptr, %union.pthread_mutex_t, i8, i16, i16, %struct.wolfSSL_RefWithMutex }

; Function Attrs: nounwind uwtable
define i32 @wolfSSL_CertManagerUnloadCAs(ptr noundef %0) #0 {
  %2 = alloca ptr, align 8
  %3 = alloca i32, align 4
  store ptr %0, ptr %2, align 8, !tbaa !9
  call void @llvm.lifetime.start.p0(i64 4, ptr %3) #9
  store i32 1, ptr %3, align 4, !tbaa !7
  br label %4

4:                                                ; preds = %1
  br label %5

5:                                                ; preds = %4
  br label %6

6:                                                ; preds = %5
  %7 = load ptr, ptr %2, align 8, !tbaa !9
  %8 = icmp eq ptr %7, null
  br i1 %8, label %9, label %10

9:                                                ; preds = %6
  store i32 -173, ptr %3, align 4, !tbaa !7
  br label %10

10:                                               ; preds = %9, %6
  %11 = load i32, ptr %3, align 4, !tbaa !7
  %12 = icmp eq i32 %11, 1
  br i1 %12, label %13, label %19

13:                                               ; preds = %10
  %14 = load ptr, ptr %2, align 8, !tbaa !9
  %15 = getelementptr inbounds nuw %struct.WOLFSSL_CERT_MANAGER, ptr %14, i32 0, i32 13
  %16 = call i32 @wc_LockMutex(ptr noundef %15)
  %17 = icmp ne i32 %16, 0
  br i1 %17, label %18, label %19

18:                                               ; preds = %13
  store i32 -106, ptr %3, align 4, !tbaa !7
  br label %19

19:                                               ; preds = %18, %13, %10
  %20 = load i32, ptr %3, align 4, !tbaa !7
  %21 = icmp eq i32 %20, 1
  br i1 %21, label %22, label %32

22:                                               ; preds = %19
  %23 = load ptr, ptr %2, align 8, !tbaa !9
  %24 = getelementptr inbounds nuw %struct.WOLFSSL_CERT_MANAGER, ptr %23, i32 0, i32 0
  %25 = getelementptr inbounds [11 x ptr], ptr %24, i64 0, i64 0
  %26 = load ptr, ptr %2, align 8, !tbaa !9
  %27 = getelementptr inbounds nuw %struct.WOLFSSL_CERT_MANAGER, ptr %26, i32 0, i32 1
  %28 = load ptr, ptr %27, align 8, !tbaa !19
  call void @FreeSignerTable(ptr noundef %25, i32 noundef 11, ptr noundef %28)
  %29 = load ptr, ptr %2, align 8, !tbaa !9
  %30 = getelementptr inbounds nuw %struct.WOLFSSL_CERT_MANAGER, ptr %29, i32 0, i32 13
  %31 = call i32 @wc_UnLockMutex(ptr noundef %30)
  br label %32

32:                                               ; preds = %22, %19
  %33 = load i32, ptr %3, align 4, !tbaa !7
  call void @llvm.lifetime.end.p0(i64 4, ptr %3) #9
  ret i32 %33
}