; Function Attrs: nounwind uwtable
define range(i32 -173, 2) i32 @wolfSSL_CertManagerUnloadCAs(ptr noundef %0) local_unnamed_addr #0 {
  %.not = icmp eq ptr %0, null
  br i1 %.not, label %.thread11, label %2

2:                                                ; preds = %1
  %3 = getelementptr inbounds nuw i8, ptr %0, i64 184
  %4 = tail call i32 @wc_LockMutex(ptr noundef nonnull %3) #22
  %.not7 = icmp eq i32 %4, 0
  br i1 %.not7, label %.thread, label %.thread11

.thread:                                          ; preds = %2
  %5 = getelementptr inbounds nuw i8, ptr %0, i64 88
  %6 = load ptr, ptr %5, align 8, !tbaa !16
  tail call void @FreeSignerTable(ptr noundef nonnull %0, i32 noundef 11, ptr noundef %6) #22
  %7 = tail call i32 @wc_UnLockMutex(ptr noundef nonnull %3) #22
  br label %.thread11

.thread11:                                        ; preds = %1, %2, %.thread
  %.09 = phi i32 [ 1, %.thread ], [ -106, %2 ], [ -173, %1 ]
  ret i32 %.09
}